target datalayout = "e-m:e-p270:32:32-p271:32:32-p272:64:64-i64:64-i128:128-f80:128-n8:16:32:64-S128"
target triple = "x86_64-pc-linux-gnu"

%struct.index_state = type { ptr, i32, i32, i32, i32, ptr, ptr, ptr, %struct.cache_time, i8, i32, %struct.hashmap, %struct.hashmap, %struct.object_id, ptr, ptr, ptr, ptr, ptr, ptr, ptr }
%struct.cache_time = type { i32, i32 }
%struct.hashmap = type { ptr, ptr, ptr, i32, i32, i32, i32, i8 }
%struct.object_id = type { [32 x i8], i32 }
%struct.cache_entry = type { %struct.hashmap_entry, %struct.stat_data, i32, i32, i32, i32, i32, %struct.object_id, [0 x i8] }
%struct.hashmap_entry = type { ptr, i32 }
%struct.stat_data = type { %struct.cache_time, %struct.cache_time, i32, i32, i32, i32, i32 }
%struct.split_index = type { %struct.object_id, ptr, ptr, ptr, ptr, i32, i32, i32, i32 }

; Function Attrs: inlinehint nounwind uwtable
define internal ptr @mem_pool__ce_calloc(ptr noundef %0, i64 noundef %1) #3 {
  %3 = alloca ptr, align 8
  %4 = alloca i64, align 8
  %5 = alloca ptr, align 8
  store ptr %0, ptr %3, align 8, !tbaa !76
  store i64 %1, ptr %4, align 8, !tbaa !31
  call void @llvm.lifetime.start.p0(i64 8, ptr %5) #12
  %6 = load ptr, ptr %3, align 8, !tbaa !76
  %7 = load i64, ptr %4, align 8, !tbaa !31
  %8 = add i64 108, %7
  %9 = add i64 %8, 1
  %10 = call ptr @mem_pool_calloc(ptr noundef %6, i64 noundef 1, i64 noundef %9)
  store ptr %10, ptr %5, align 8, !tbaa !29
  %11 = load ptr, ptr %5, align 8, !tbaa !29
  %12 = getelementptr inbounds nuw %struct.cache_entry, ptr %11, i32 0, i32 4
  store i32 1, ptr %12, align 4, !tbaa !9
  %13 = load ptr, ptr %5, align 8, !tbaa !29
  call void @llvm.lifetime.end.p0(i64 8, ptr %5) #12
  ret ptr %13
}

; Function Attrs: nounwind uwtable
define internal ptr @find_mem_pool(ptr noundef %0) #0 {
  %2 = alloca ptr, align 8
  %3 = alloca ptr, align 8
  store ptr %0, ptr %2, align 8, !tbaa !4
  call void @llvm.lifetime.start.p0(i64 8, ptr %3) #12
  %4 = load ptr, ptr %2, align 8, !tbaa !4
  %5 = getelementptr inbounds nuw %struct.index_state, ptr %4, i32 0, i32 7
  %6 = load ptr, ptr %5, align 8, !tbaa !77
  %7 = icmp ne ptr %6, null
  br i1 %7, label %8, label %22

8:                                                ; preds = %1
  %9 = load ptr, ptr %2, align 8, !tbaa !4
  %10 = getelementptr inbounds nuw %struct.index_state, ptr %9, i32 0, i32 7
  %11 = load ptr, ptr %10, align 8, !tbaa !77
  %12 = getelementptr inbounds nuw %struct.split_index, ptr %11, i32 0, i32 1
  %13 = load ptr, ptr %12, align 8, !tbaa !78
  %14 = icmp ne ptr %13, null
  br i1 %14, label %15, label %22

15:                                               ; preds = %8
  %16 = load ptr, ptr %2, align 8, !tbaa !4
  %17 = getelementptr inbounds nuw %struct.index_state, ptr %16, i32 0, i32 7
  %18 = load ptr, ptr %17, align 8, !tbaa !77
  %19 = getelementptr inbounds nuw %struct.split_index, ptr %18, i32 0, i32 1
  %20 = load ptr, ptr %19, align 8, !tbaa !78
  %21 = getelementptr inbounds nuw %struct.index_state, ptr %20, i32 0, i32 17
  store ptr %21, ptr %3, align 8, !tbaa !80
  br label %25

22:                                               ; preds = %8, %1
  %23 = load ptr, ptr %2, align 8, !tbaa !4
  %24 = getelementptr inbounds nuw %struct.index_state, ptr %23, i32 0, i32 17
  store ptr %24, ptr %3, align 8, !tbaa !80
  br label %25

25:                                               ; preds = %22, %15
  %26 = load ptr, ptr %3, align 8, !tbaa !80
  %27 = load ptr, ptr %26, align 8, !tbaa !76
  %28 = icmp ne ptr %27, null
  br i1 %28, label %34, label %29

29:                                               ; preds = %25
  %30 = call ptr @xmalloc(i64 noundef 24)
  %31 = load ptr, ptr %3, align 8, !tbaa !80
  store ptr %30, ptr %31, align 8, !tbaa !76
  %32 = load ptr, ptr %3, align 8, !tbaa !80
  %33 = load ptr, ptr %32, align 8, !tbaa !76
  call void @mem_pool_init(ptr noundef %33, i64 noundef 0)
  br label %34

34:                                               ; preds = %29, %25
  %35 = load ptr, ptr %3, align 8, !tbaa !80
  %36 = load ptr, ptr %35, align 8, !tbaa !76
  call void @llvm.lifetime.end.p0(i64 8, ptr %3) #12
  ret ptr %36
}

; Function Attrs: nounwind uwtable
define dso_local ptr @make_empty_cache_entry(ptr noundef %0, i64 noundef %1) #0 {
  %3 = alloca ptr, align 8
  %4 = alloca i64, align 8
  store ptr %0, ptr %3, align 8, !tbaa !4
  store i64 %1, ptr %4, align 8, !tbaa !31
  %5 = load ptr, ptr %3, align 8, !tbaa !4
  %6 = call ptr @find_mem_pool(ptr noundef %5)
  %7 = load i64, ptr %4, align 8, !tbaa !31
  %8 = call ptr @mem_pool__ce_calloc(ptr noundef %6, i64 noundef %7)
  ret ptr %8
}

; Function Attrs: nounwind uwtable
define dso_local ptr @dup_cache_entry(ptr noundef %0, ptr noundef %1) #0 {
  %3 = alloca ptr, align 8
  %4 = alloca ptr, align 8
  %5 = alloca i32, align 4
  %6 = alloca i32, align 4
  %7 = alloca ptr, align 8
  store ptr %0, ptr %3, align 8, !tbaa !29
  store ptr %1, ptr %4, align 8, !tbaa !4
  call void @llvm.lifetime.start.p0(i64 4, ptr %5) #12
  %8 = load ptr, ptr %3, align 8, !tbaa !29
  %9 = getelementptr inbounds nuw %struct.cache_entry, ptr %8, i32 0, i32 5
  %10 = load i32, ptr %9, align 8, !tbaa !9
  %11 = zext i32 %10 to i64
  %12 = add i64 108, %11
  %13 = add i64 %12, 1
  %14 = trunc i64 %13 to i32
  store i32 %14, ptr %5, align 4, !tbaa !9
  call void @llvm.lifetime.start.p0(i64 4, ptr %6) #12
  call void @llvm.lifetime.start.p0(i64 8, ptr %7) #12
  %15 = load ptr, ptr %4, align 8, !tbaa !4
  %16 = load ptr, ptr %3, align 8, !tbaa !29
  %17 = getelementptr inbounds nuw %struct.cache_entry, ptr %16, i32 0, i32 5
  %18 = load i32, ptr %17, align 8, !tbaa !9
  %19 = zext i32 %18 to i64
  %20 = call ptr @make_empty_cache_entry(ptr noundef %15, i64 noundef %19)
  store ptr %20, ptr %7, align 8, !tbaa !29
  %21 = load ptr, ptr %7, align 8, !tbaa !29
  %22 = getelementptr inbounds nuw %struct.cache_entry, ptr %21, i32 0, i32 4
  %23 = load i32, ptr %22, align 4, !tbaa !9
  store i32 %23, ptr %6, align 4, !tbaa !9
  %24 = load ptr, ptr %7, align 8, !tbaa !29
  %25 = load ptr, ptr %3, align 8, !tbaa !29
  %26 = load i32, ptr %5, align 4, !tbaa !9
  %27 = zext i32 %26 to i64
  call void @llvm.memcpy.p0.p0.i64(ptr align 8 %24, ptr align 8 %25, i64 %27, i1 false)
  %28 = load i32, ptr %6, align 4, !tbaa !9
  %29 = load ptr, ptr %7, align 8, !tbaa !29
  %30 = getelementptr inbounds nuw %struct.cache_entry, ptr %29, i32 0, i32 4
  store i32 %28, ptr %30, align 4, !tbaa !9
  %31 = load ptr, ptr %7, align 8, !tbaa !29
  call void @llvm.lifetime.end.p0(i64 8, ptr %7) #12
  call void @llvm.lifetime.end.p0(i64 4, ptr %6) #12
  call void @llvm.lifetime.end.p0(i64 4, ptr %5) #12
  ret ptr %31
}