; Function Attrs: nounwind uwtable
define dso_local ptr @dup_cache_entry(ptr noundef readonly captures(none) %0, ptr noundef captures(none) %1) local_unnamed_addr #0 {
  %3 = getelementptr inbounds nuw i8, ptr %0, i64 64
  %4 = load i32, ptr %3, align 8, !tbaa !32
  %5 = getelementptr inbounds nuw i8, ptr %1, i64 40
  %6 = load ptr, ptr %5, align 8, !tbaa !27
  %.not.i.i = icmp eq ptr %6, null
  br i1 %.not.i.i, label %10, label %7

7:                                                ; preds = %2
  %8 = getelementptr inbounds nuw i8, ptr %6, i64 40
  %9 = load ptr, ptr %8, align 8, !tbaa !28
  %.not10.i.i = icmp eq ptr %9, null
  br i1 %.not10.i.i, label %10, label %11

10:                                               ; preds = %7, %2
  br label %11

11:                                               ; preds = %10, %7
  %.pn.i.i = phi ptr [ %1, %10 ], [ %9, %7 ]
  %.0.i.i = getelementptr inbounds nuw i8, ptr %.pn.i.i, i64 224
  %12 = load ptr, ptr %.0.i.i, align 8, !tbaa !31
  %.not11.i.i = icmp eq ptr %12, null
  br i1 %.not11.i.i, label %13, label %make_empty_cache_entry.exit

13:                                               ; preds = %11
  %14 = tail call ptr @xmalloc(i64 noundef 24) #30
  store ptr %14, ptr %.0.i.i, align 8, !tbaa !31
  tail call void @mem_pool_init(ptr noundef %14, i64 noundef 0) #30
  %.pre.i.i = load ptr, ptr %.0.i.i, align 8, !tbaa !31
  br label %make_empty_cache_entry.exit

make_empty_cache_entry.exit:                      ; preds = %11, %13
  %15 = phi ptr [ %.pre.i.i, %13 ], [ %12, %11 ]
  %16 = add i32 %4, 109
  %17 = zext i32 %4 to i64
  %18 = add nuw nsw i64 %17, 109
  %19 = tail call ptr @mem_pool_calloc(ptr noundef %15, i64 noundef 1, i64 noundef %18) #30
  %20 = getelementptr inbounds nuw i8, ptr %19, i64 60
  store i32 1, ptr %20, align 4, !tbaa !32
  %21 = zext i32 %16 to i64
  tail call void @llvm.memcpy.p0.p0.i64(ptr align 8 %19, ptr nonnull align 8 %0, i64 %21, i1 false)
  store i32 1, ptr %20, align 4, !tbaa !32
  ret ptr %19
}